target datalayout = "e-m:e-p270:32:32-p271:32:32-p272:64:64-i64:64-i128:128-f80:128-n8:16:32:64-S128"
target triple = "x86_64-pc-linux-gnu"

@_ZN23JvmtiCurrentBreakpoints18_jvmti_breakpointsE = hidden global ptr null, align 8
@_ZN16JvmtiBreakpointsC1EPFvPvPPhE = hidden unnamed_addr alias void (ptr, ptr), ptr @_ZN16JvmtiBreakpointsC2EPFvPvPPhE

; Function Attrs: mustprogress nounwind uwtable
define hidden noundef nonnull align 8 dereferenceable(40) ptr @_ZN23JvmtiCurrentBreakpoints21get_jvmti_breakpointsEv() #1 align 2 {
  %1 = alloca i64, align 8
  %2 = alloca i8, align 1
  %3 = alloca i64, align 8
  %4 = alloca ptr, align 8
  %5 = load ptr, ptr @_ZN23JvmtiCurrentBreakpoints18_jvmti_breakpointsE, align 8
  %6 = icmp ne ptr %5, null
  br i1 %6, label %7, label %9

7:                                                ; preds = %0
  %8 = load ptr, ptr @_ZN23JvmtiCurrentBreakpoints18_jvmti_breakpointsE, align 8
  store ptr %8, ptr %4, align 8
  br label %15

9:                                                ; preds = %0
  store i64 40, ptr %3, align 8
  %10 = load i64, ptr %3, align 8
  store i64 %10, ptr %1, align 8
  store i8 9, ptr %2, align 1
  %11 = load i64, ptr %1, align 8
  %12 = load i8, ptr %2, align 1
  %13 = call noundef ptr @_Z12AllocateHeapm8MEMFLAGSN17AllocFailStrategy13AllocFailEnumE(i64 noundef %11, i8 noundef zeroext %12, i32 noundef 0) #10
  call void @_ZN16JvmtiBreakpointsC1EPFvPvPPhE(ptr noundef nonnull align 8 dereferenceable(40) %13, ptr noundef @_ZN23JvmtiCurrentBreakpoints12listener_funEPvPPh)
  store ptr %13, ptr @_ZN23JvmtiCurrentBreakpoints18_jvmti_breakpointsE, align 8
  %14 = load ptr, ptr @_ZN23JvmtiCurrentBreakpoints18_jvmti_breakpointsE, align 8
  store ptr %14, ptr %4, align 8
  br label %15

15:                                               ; preds = %9, %7
  %16 = load ptr, ptr %4, align 8
  ret ptr %16
}