; Function Attrs: mustprogress nounwind uwtable
define hidden noundef nonnull align 8 dereferenceable(40) ptr @_ZN23JvmtiCurrentBreakpoints21get_jvmti_breakpointsEv() local_unnamed_addr #0 align 2 {
  %1 = load ptr, ptr @_ZN23JvmtiCurrentBreakpoints18_jvmti_breakpointsE, align 8
  %.not = icmp eq ptr %1, null
  br i1 %.not, label %2, label %14

2:                                                ; preds = %0
  %3 = tail call noundef ptr @_Z12AllocateHeapm8MEMFLAGSN17AllocFailStrategy13AllocFailEnumE(i64 noundef 40, i8 noundef zeroext 9, i32 noundef 0) #17
  %4 = getelementptr inbounds i8, ptr %3, i64 8
  %5 = getelementptr inbounds i8, ptr %3, i64 16
  tail call void @llvm.memset.p0.i64(ptr noundef nonnull align 8 dereferenceable(32) %5, i8 0, i64 16, i1 false)
  store ptr %3, ptr %4, align 8
  %6 = getelementptr inbounds i8, ptr %3, i64 32
  store ptr @_ZN23JvmtiCurrentBreakpoints12listener_funEPvPPh, ptr %6, align 8
  %7 = tail call noundef ptr @_ZN6AnyObjnwEm8MEMFLAGS(i64 noundef 24, i8 noundef zeroext 23) #17
  %8 = icmp eq ptr %7, null
  br i1 %8, label %_ZN16JvmtiBreakpointsC2EPFvPvPPhE.exit, label %9

9:                                                ; preds = %2
  %10 = tail call noundef ptr @_ZN27GrowableArrayCHeapAllocator8allocateEii8MEMFLAGS(i32 noundef 5, i32 noundef 8, i8 noundef zeroext 23) #17
  store i32 0, ptr %7, align 4
  %11 = getelementptr inbounds i8, ptr %7, i64 4
  store i32 5, ptr %11, align 4
  %12 = getelementptr inbounds i8, ptr %7, i64 8
  store ptr %10, ptr %12, align 8
  tail call void @llvm.memset.p0.i64(ptr noundef nonnull align 8 dereferenceable(40) %10, i8 0, i64 40, i1 false)
  %13 = getelementptr inbounds i8, ptr %7, i64 16
  store i64 47, ptr %13, align 8
  br label %_ZN16JvmtiBreakpointsC2EPFvPvPPhE.exit

_ZN16JvmtiBreakpointsC2EPFvPvPPhE.exit:           ; preds = %2, %9
  store ptr %7, ptr %5, align 8
  tail call void @_ZN13GrowableCache7recacheEv(ptr noundef nonnull align 8 dereferenceable(32) %4)
  store ptr %3, ptr @_ZN23JvmtiCurrentBreakpoints18_jvmti_breakpointsE, align 8
  br label %14

14:                                               ; preds = %0, %_ZN16JvmtiBreakpointsC2EPFvPvPPhE.exit
  %.0 = phi ptr [ %3, %_ZN16JvmtiBreakpointsC2EPFvPvPPhE.exit ], [ %1, %0 ]
  ret ptr %.0
}